; ModuleID = '9/1613.c'
source_filename = "9/1613.c"
target datalayout = "e-m:e-p270:32:32-p271:32:32-p272:64:64-i64:64-f80:128-n8:16:32:64-S128"
target triple = "x86_64-pc-linux-gnu"

@.str = private unnamed_addr constant [3 x i8] c"%d\00", align 1
@.str.1 = private unnamed_addr constant [5 x i8] c"%s%d\00", align 1

; Function Attrs: noinline nounwind uwtable
define dso_local i32 @main() #0 {
  %1 = alloca i32, align 4
  %2 = alloca [100 x i32], align 16
  %3 = alloca [100 x i32], align 16
  %4 = alloca [100 x i32], align 16
  %5 = alloca [100 x [100 x i8]], align 16
  %6 = alloca [100 x [100 x i8]], align 16
  %7 = alloca [100 x [100 x i8]], align 16
  %8 = alloca [100 x i8], align 16
  %9 = alloca i32, align 4
  %10 = alloca i32, align 4
  %11 = alloca i32, align 4
  %12 = alloca i32, align 4
  %13 = alloca i32, align 4
  %14 = alloca i32, align 4
  store i32 0, i32* %1, align 4
  store i32 0, i32* %10, align 4
  store i32 0, i32* %11, align 4
  %15 = call i32 (i8*, ...) @__isoc99_scanf(i8* getelementptr inbounds ([3 x i8], [3 x i8]* @.str, i64 0, i64 0), i32* %9)
  store i32 0, i32* %14, align 4
  br label %16

16:                                               ; preds = %87, %0
  %17 = load i32, i32* %14, align 4
  %18 = load i32, i32* %9, align 4
  %19 = icmp slt i32 %17, %18
  br i1 %19, label %20, label %90

20:                                               ; preds = %16
  %21 = load i32, i32* %14, align 4
  %22 = sext i32 %21 to i64
  %23 = getelementptr inbounds [100 x [100 x i8]], [100 x [100 x i8]]* %5, i64 0, i64 %22
  %24 = getelementptr inbounds [100 x i8], [100 x i8]* %23, i64 0, i64 0
  %25 = load i32, i32* %14, align 4
  %26 = sext i32 %25 to i64
  %27 = getelementptr inbounds [100 x i32], [100 x i32]* %2, i64 0, i64 %26
  %28 = call i32 (i8*, ...) @__isoc99_scanf(i8* getelementptr inbounds ([5 x i8], [5 x i8]* @.str.1, i64 0, i64 0), i8* %24, i32* %27)
  %29 = load i32, i32* %14, align 4
  %30 = sext i32 %29 to i64
  %31 = getelementptr inbounds [100 x i32], [100 x i32]* %2, i64 0, i64 %30
  %32 = load i32, i32* %31, align 4
  %33 = icmp sge i32 %32, 60
  br i1 %33, label %34, label %57

34:                                               ; preds = %20
  %35 = load i32, i32* %10, align 4
  %36 = add nsw i32 %35, 1
  store i32 %36, i32* %10, align 4
  %37 = load i32, i32* %14, align 4
  %38 = sext i32 %37 to i64
  %39 = getelementptr inbounds [100 x i32], [100 x i32]* %2, i64 0, i64 %38
  %40 = load i32, i32* %39, align 4
  %41 = load i32, i32* %14, align 4
  %42 = load i32, i32* %11, align 4
  %43 = sub nsw i32 %41, %42
  %44 = sext i32 %43 to i64
  %45 = getelementptr inbounds [100 x i32], [100 x i32]* %3, i64 0, i64 %44
  store i32 %40, i32* %45, align 4
  %46 = load i32, i32* %14, align 4
  %47 = load i32, i32* %11, align 4
  %48 = sub nsw i32 %46, %47
  %49 = sext i32 %48 to i64
  %50 = getelementptr inbounds [100 x [100 x i8]], [100 x [100 x i8]]* %6, i64 0, i64 %49
  %51 = getelementptr inbounds [100 x i8], [100 x i8]* %50, i64 0, i64 0
  %52 = load i32, i32* %14, align 4
  %53 = sext i32 %52 to i64
  %54 = getelementptr inbounds [100 x [100 x i8]], [100 x [100 x i8]]* %5, i64 0, i64 %53
  %55 = getelementptr inbounds [100 x i8], [100 x i8]* %54, i64 0, i64 0
  %56 = call i8* @strcpy(i8* %51, i8* %55) #3
  br label %57

57:                                               ; preds = %34, %20
  %58 = load i32, i32* %14, align 4
  %59 = sext i32 %58 to i64
  %60 = getelementptr inbounds [100 x i32], [100 x i32]* %2, i64 0, i64 %59
  %61 = load i32, i32* %60, align 4
  %62 = icmp slt i32 %61, 60
  br i1 %62, label %63, label %86

63:                                               ; preds = %57
  %64 = load i32, i32* %11, align 4
  %65 = add nsw i32 %64, 1
  store i32 %65, i32* %11, align 4
  %66 = load i32, i32* %14, align 4
  %67 = sext i32 %66 to i64
  %68 = getelementptr inbounds [100 x i32], [100 x i32]* %2, i64 0, i64 %67
  %69 = load i32, i32* %68, align 4
  %70 = load i32, i32* %14, align 4
  %71 = load i32, i32* %10, align 4
  %72 = sub nsw i32 %70, %71
  %73 = sext i32 %72 to i64
  %74 = getelementptr inbounds [100 x i32], [100 x i32]* %4, i64 0, i64 %73
  store i32 %69, i32* %74, align 4
  %75 = load i32, i32* %14, align 4
  %76 = load i32, i32* %10, align 4
  %77 = sub nsw i32 %75, %76
  %78 = sext i32 %77 to i64
  %79 = getelementptr inbounds [100 x [100 x i8]], [100 x [100 x i8]]* %7, i64 0, i64 %78
  %80 = getelementptr inbounds [100 x i8], [100 x i8]* %79, i64 0, i64 0
  %81 = load i32, i32* %14, align 4
  %82 = sext i32 %81 to i64
  %83 = getelementptr inbounds [100 x [100 x i8]], [100 x [100 x i8]]* %5, i64 0, i64 %82
  %84 = getelementptr inbounds [100 x i8], [100 x i8]* %83, i64 0, i64 0
  %85 = call i8* @strcpy(i8* %80, i8* %84) #3
  br label %86

86:                                               ; preds = %63, %57
  br label %87

87:                                               ; preds = %86
  %88 = load i32, i32* %14, align 4
  %89 = add nsw i32 %88, 1
  store i32 %89, i32* %14, align 4
  br label %16

90:                                               ; preds = %16
  store i32 1, i32* %12, align 4
  br label %91

91:                                               ; preds = %159, %90
  %92 = load i32, i32* %12, align 4
  %93 = load i32, i32* %10, align 4
  %94 = icmp sle i32 %92, %93
  br i1 %94, label %95, label %162

95:                                               ; preds = %91
  store i32 0, i32* %14, align 4
  br label %96

96:                                               ; preds = %155, %95
  %97 = load i32, i32* %14, align 4
  %98 = load i32, i32* %10, align 4
  %99 = load i32, i32* %12, align 4
  %100 = sub nsw i32 %98, %99
  %101 = icmp slt i32 %97, %100
  br i1 %101, label %102, label %158

102:                                              ; preds = %96
  %103 = load i32, i32* %14, align 4
  %104 = sext i32 %103 to i64
  %105 = getelementptr inbounds [100 x i32], [100 x i32]* %3, i64 0, i64 %104
  %106 = load i32, i32* %105, align 4
  %107 = load i32, i32* %14, align 4
  %108 = add nsw i32 %107, 1
  %109 = sext i32 %108 to i64
  %110 = getelementptr inbounds [100 x i32], [100 x i32]* %3, i64 0, i64 %109
  %111 = load i32, i32* %110, align 4
  %112 = icmp slt i32 %106, %111
  br i1 %112, label %113, label %154

113:                                              ; preds = %102
  %114 = load i32, i32* %14, align 4
  %115 = sext i32 %114 to i64
  %116 = getelementptr inbounds [100 x i32], [100 x i32]* %3, i64 0, i64 %115
  %117 = load i32, i32* %116, align 4
  store i32 %117, i32* %13, align 4
  %118 = load i32, i32* %14, align 4
  %119 = add nsw i32 %118, 1
  %120 = sext i32 %119 to i64
  %121 = getelementptr inbounds [100 x i32], [100 x i32]* %3, i64 0, i64 %120
  %122 = load i32, i32* %121, align 4
  %123 = load i32, i32* %14, align 4
  %124 = sext i32 %123 to i64
  %125 = getelementptr inbounds [100 x i32], [100 x i32]* %3, i64 0, i64 %124
  store i32 %122, i32* %125, align 4
  %126 = load i32, i32* %13, align 4
  %127 = load i32, i32* %14, align 4
  %128 = add nsw i32 %127, 1
  %129 = sext i32 %128 to i64
  %130 = getelementptr inbounds [100 x i32], [100 x i32]* %3, i64 0, i64 %129
  store i32 %126, i32* %130, align 4
  %131 = getelementptr inbounds [100 x i8], [100 x i8]* %8, i64 0, i64 0
  %132 = load i32, i32* %14, align 4
  %133 = sext i32 %132 to i64
  %134 = getelementptr inbounds [100 x [100 x i8]], [100 x [100 x i8]]* %6, i64 0, i64 %133
  %135 = getelementptr inbounds [100 x i8], [100 x i8]* %134, i64 0, i64 0
  %136 = call i8* @strcpy(i8* %131, i8* %135) #3
  %137 = load i32, i32* %14, align 4
  %138 = sext i32 %137 to i64
  %139 = getelementptr inbounds [100 x [100 x i8]], [100 x [100 x i8]]* %6, i64 0, i64 %138
  %140 = getelementptr inbounds [100 x i8], [100 x i8]* %139, i64 0, i64 0
  %141 = load i32, i32* %14, align 4
  %142 = add nsw i32 %141, 1
  %143 = sext i32 %142 to i64
  %144 = getelementptr inbounds [100 x [100 x i8]], [100 x [100 x i8]]* %6, i64 0, i64 %143
  %145 = getelementptr inbounds [100 x i8], [100 x i8]* %144, i64 0, i64 0
  %146 = call i8* @strcpy(i8* %140, i8* %145) #3
  %147 = load i32, i32* %14, align 4
  %148 = add nsw i32 %147, 1
  %149 = sext i32 %148 to i64
  %150 = getelementptr inbounds [100 x [100 x i8]], [100 x [100 x i8]]* %6, i64 0, i64 %149
  %151 = getelementptr inbounds [100 x i8], [100 x i8]* %150, i64 0, i64 0
  %152 = getelementptr inbounds [100 x i8], [100 x i8]* %8, i64 0, i64 0
  %153 = call i8* @strcpy(i8* %151, i8* %152) #3
  br label %154

154:                                              ; preds = %113, %102
  br label %155

155:                                              ; preds = %154
  %156 = load i32, i32* %14, align 4
  %157 = add nsw i32 %156, 1
  store i32 %157, i32* %14, align 4
  br label %96

158:                                              ; preds = %96
  br label %159

159:                                              ; preds = %158
  %160 = load i32, i32* %12, align 4
  %161 = add nsw i32 %160, 1
  store i32 %161, i32* %12, align 4
  br label %91

162:                                              ; preds = %91
  store i32 0, i32* %14, align 4
  br label %163

163:                                              ; preds = %173, %162
  %164 = load i32, i32* %14, align 4
  %165 = load i32, i32* %10, align 4
  %166 = icmp slt i32 %164, %165
  br i1 %166, label %167, label %176

167:                                              ; preds = %163
  %168 = load i32, i32* %14, align 4
  %169 = sext i32 %168 to i64
  %170 = getelementptr inbounds [100 x [100 x i8]], [100 x [100 x i8]]* %6, i64 0, i64 %169
  %171 = getelementptr inbounds [100 x i8], [100 x i8]* %170, i64 0, i64 0
  %172 = call i32 @puts(i8* %171)
  br label %173

173:                                              ; preds = %167
  %174 = load i32, i32* %14, align 4
  %175 = add nsw i32 %174, 1
  store i32 %175, i32* %14, align 4
  br label %163

176:                                              ; preds = %163
  store i32 0, i32* %14, align 4
  br label %177

177:                                              ; preds = %187, %176
  %178 = load i32, i32* %14, align 4
  %179 = load i32, i32* %11, align 4
  %180 = icmp slt i32 %178, %179
  br i1 %180, label %181, label %190

181:                                              ; preds = %177
  %182 = load i32, i32* %14, align 4
  %183 = sext i32 %182 to i64
  %184 = getelementptr inbounds [100 x [100 x i8]], [100 x [100 x i8]]* %7, i64 0, i64 %183
  %185 = getelementptr inbounds [100 x i8], [100 x i8]* %184, i64 0, i64 0
  %186 = call i32 @puts(i8* %185)
  br label %187

187:                                              ; preds = %181
  %188 = load i32, i32* %14, align 4
  %189 = add nsw i32 %188, 1
  store i32 %189, i32* %14, align 4
  br label %177

190:                                              ; preds = %177
  ret i32 0
}

declare dso_local i32 @__isoc99_scanf(i8*, ...) #1

; Function Attrs: nounwind
declare dso_local i8* @strcpy(i8*, i8*) #2

declare dso_local i32 @puts(i8*) #1


!llvm.module.flags = !{!0}
!llvm.ident = !{!1}

!0 = !{i32 1, !"wchar_size", i32 4}
!1 = !{!"clang version 10.0.0-4ubuntu1 "}
